; Function Attrs: mustprogress nounwind uwtable
define dso_local noundef nonnull align 8 dereferenceable(8) ptr @_ZN8cmTargetaSEOS_(ptr noundef nonnull returned align 8 dereferenceable(8) %0, ptr noundef nonnull align 8 captures(none) dereferenceable(8) %1) local_unnamed_addr #4 align 2 personality ptr @__gxx_personality_v0 {
  %3 = load ptr, ptr %1, align 8, !tbaa !22
  store ptr null, ptr %1, align 8, !tbaa !22
  %4 = load ptr, ptr %0, align 8, !tbaa !22
  store ptr %3, ptr %0, align 8, !tbaa !22
  %.not.i.i.i.i = icmp eq ptr %4, null
  br i1 %.not.i.i.i.i, label %_ZNSt10unique_ptrI17cmTargetInternalsSt14default_deleteIS0_EEaSEOS3_.exit, label %_ZNKSt14default_deleteI17cmTargetInternalsEclEPS0_.exit.i.i.i.i

_ZNKSt14default_deleteI17cmTargetInternalsEclEPS0_.exit.i.i.i.i: ; preds = %2
  tail call void @_ZN17cmTargetInternalsD2Ev(ptr noundef nonnull align 8 dereferenceable(1960) %4) #30
  tail call void @_ZdlPvm(ptr noundef nonnull %4, i64 noundef 1960) #31
  br label %_ZNSt10unique_ptrI17cmTargetInternalsSt14default_deleteIS0_EEaSEOS3_.exit

_ZNSt10unique_ptrI17cmTargetInternalsSt14default_deleteIS0_EEaSEOS3_.exit: ; preds = %2, %_ZNKSt14default_deleteI17cmTargetInternalsEclEPS0_.exit.i.i.i.i
  ret ptr %0
}